; Function Attrs: nounwind uwtable
define ptr @l_Lake_exitIfErrorCode___rarg___boxed(ptr noundef %0, ptr noundef %1, ptr noundef %2) #0 {
  %4 = ptrtoint ptr %2 to i64
  %5 = and i64 %4, 1
  %.not = icmp eq i64 %5, 0
  br i1 %.not, label %6, label %lean_dec.exit

6:                                                ; preds = %3
  %7 = load i32, ptr %2, align 4, !tbaa !4
  %8 = icmp sgt i32 %7, 1
  br i1 %8, label %9, label %11, !prof !13

9:                                                ; preds = %6
  %10 = add nsw i32 %7, -1
  store i32 %10, ptr %2, align 4, !tbaa !4
  br label %lean_dec.exit

11:                                               ; preds = %6
  %.not.i = icmp eq i32 %7, 0
  br i1 %.not.i, label %lean_dec.exit, label %12

12:                                               ; preds = %11
  tail call void @lean_dec_ref_cold(ptr noundef nonnull %2) #3
  br label %lean_dec.exit

lean_dec.exit:                                    ; preds = %12, %11, %9, %3
  %13 = and i64 %4, 8589934590
  %.not.i5 = icmp eq i64 %13, 0
  br i1 %.not.i5, label %27, label %14

14:                                               ; preds = %lean_dec.exit
  %15 = ptrtoint ptr %0 to i64
  %16 = and i64 %15, 1
  %.not16.i = icmp eq i64 %16, 0
  br i1 %.not16.i, label %17, label %lean_dec.exit12.i

17:                                               ; preds = %14
  %18 = load i32, ptr %0, align 4, !tbaa !4
  %19 = icmp sgt i32 %18, 1
  br i1 %19, label %20, label %22, !prof !13

20:                                               ; preds = %17
  %21 = add nsw i32 %18, -1
  store i32 %21, ptr %0, align 4, !tbaa !4
  br label %lean_dec.exit12.i

22:                                               ; preds = %17
  %.not.i.i = icmp eq i32 %18, 0
  br i1 %.not.i.i, label %lean_dec.exit12.i, label %23

23:                                               ; preds = %22
  tail call void @lean_dec_ref_cold(ptr noundef nonnull %0) #3
  br label %lean_dec.exit12.i

lean_dec.exit12.i:                                ; preds = %23, %22, %20, %14
  %24 = or disjoint i64 %13, 1
  %25 = inttoptr i64 %24 to ptr
  %26 = tail call ptr @lean_apply_2(ptr noundef %1, ptr noundef nonnull inttoptr (i64 1 to ptr), ptr noundef nonnull %25) #3
  br label %l_Lake_exitIfErrorCode___rarg.exit

27:                                               ; preds = %lean_dec.exit
  %28 = ptrtoint ptr %1 to i64
  %29 = and i64 %28, 1
  %.not15.i = icmp eq i64 %29, 0
  br i1 %.not15.i, label %30, label %lean_dec.exit.i

30:                                               ; preds = %27
  %31 = load i32, ptr %1, align 4, !tbaa !4
  %32 = icmp sgt i32 %31, 1
  br i1 %32, label %33, label %35, !prof !13

33:                                               ; preds = %30
  %34 = add nsw i32 %31, -1
  store i32 %34, ptr %1, align 4, !tbaa !4
  br label %lean_dec.exit.i

35:                                               ; preds = %30
  %.not.i13.i = icmp eq i32 %31, 0
  br i1 %.not.i13.i, label %lean_dec.exit.i, label %36

36:                                               ; preds = %35
  tail call void @lean_dec_ref_cold(ptr noundef nonnull %1) #3
  br label %lean_dec.exit.i

lean_dec.exit.i:                                  ; preds = %36, %35, %33, %27
  %37 = tail call ptr @lean_apply_2(ptr noundef %0, ptr noundef nonnull inttoptr (i64 1 to ptr), ptr noundef nonnull inttoptr (i64 1 to ptr)) #3
  br label %l_Lake_exitIfErrorCode___rarg.exit

l_Lake_exitIfErrorCode___rarg.exit:               ; preds = %lean_dec.exit12.i, %lean_dec.exit.i
  %.0.i = phi ptr [ %26, %lean_dec.exit12.i ], [ %37, %lean_dec.exit.i ]
  ret ptr %.0.i
}